; Function Attrs: mustprogress nofree norecurse nosync nounwind willreturn memory(argmem: write) uwtable
define void @_ZN2cv8Subdiv2D6VertexC2Ev(ptr noundef nonnull writeonly align 4 captures(none) dereferenceable(16) initializes((0, 16)) %0) unnamed_addr #6 align 2 {
  %2 = getelementptr inbounds nuw i8, ptr %0, i64 8
  store float 0.000000e+00, ptr %2, align 4, !tbaa !52
  %3 = getelementptr inbounds nuw i8, ptr %0, i64 12
  store float 0.000000e+00, ptr %3, align 4, !tbaa !53
  store i32 0, ptr %0, align 4, !tbaa !14
  %4 = getelementptr inbounds nuw i8, ptr %0, i64 4
  store i32 -1, ptr %4, align 4, !tbaa !54
  ret void
}